; Function Attrs: nounwind uwtable
define hidden i32 @exr_attr_string_set_with_length(ptr noundef %0, ptr noundef %1, ptr noundef readonly %2, i32 noundef %3) local_unnamed_addr #0 {
  %.not = icmp eq ptr %0, null
  br i1 %.not, label %exr_attr_string_create_with_length.exit, label %5

5:                                                ; preds = %4
  %.not32 = icmp eq ptr %1, null
  br i1 %.not32, label %6, label %10

6:                                                ; preds = %5
  %7 = getelementptr inbounds nuw i8, ptr %0, i64 64
  %8 = load ptr, ptr %7, align 8, !tbaa !22
  %9 = tail call i32 %8(ptr noundef nonnull %0, i32 noundef 3, ptr noundef nonnull @.str.5) #4
  br label %exr_attr_string_create_with_length.exit

10:                                               ; preds = %5
  %11 = icmp slt i32 %3, 0
  br i1 %11, label %12, label %16

12:                                               ; preds = %10
  %13 = getelementptr inbounds nuw i8, ptr %0, i64 72
  %14 = load ptr, ptr %13, align 8, !tbaa !3
  %15 = tail call i32 (ptr, i32, ptr, ...) %14(ptr noundef nonnull %0, i32 noundef 3, ptr noundef nonnull @.str.6, i32 noundef %3) #4
  br label %exr_attr_string_create_with_length.exit

16:                                               ; preds = %10
  %17 = getelementptr inbounds nuw i8, ptr %1, i64 4
  %18 = load i32, ptr %17, align 4, !tbaa !27
  %19 = icmp sgt i32 %18, %3
  br i1 %19, label %20, label %29

20:                                               ; preds = %16
  store i32 %3, ptr %1, align 8, !tbaa !26
  %21 = getelementptr inbounds nuw i8, ptr %1, i64 8
  %22 = load ptr, ptr %21, align 8, !tbaa !24
  %.not33 = icmp eq i32 %3, 0
  br i1 %.not33, label %._crit_edge38, label %23

23:                                               ; preds = %20
  %.not34 = icmp eq ptr %2, null
  %24 = zext nneg i32 %3 to i64
  br i1 %.not34, label %27, label %25

25:                                               ; preds = %23
  %26 = tail call ptr @strncpy(ptr noundef %22, ptr noundef nonnull %2, i64 noundef %24) #4
  br label %._crit_edge38

27:                                               ; preds = %23
  tail call void @llvm.memset.p0.i64(ptr align 1 %22, i8 0, i64 %24, i1 false)
  br label %._crit_edge38

._crit_edge38:                                    ; preds = %20, %25, %27
  %.pre-phi = phi i64 [ %24, %25 ], [ %24, %27 ], [ 0, %20 ]
  %28 = getelementptr inbounds nuw i8, ptr %22, i64 %.pre-phi
  store i8 0, ptr %28, align 1, !tbaa !28
  br label %exr_attr_string_create_with_length.exit

29:                                               ; preds = %16
  %30 = getelementptr inbounds nuw i8, ptr %1, i64 8
  %31 = load ptr, ptr %30, align 8, !tbaa !24
  %.not11.i = icmp ne ptr %31, null
  %32 = icmp sgt i32 %18, 0
  %or.cond = and i1 %32, %.not11.i
  br i1 %or.cond, label %33, label %36

33:                                               ; preds = %29
  %34 = getelementptr inbounds nuw i8, ptr %0, i64 96
  %35 = load ptr, ptr %34, align 8, !tbaa !29
  tail call void %35(ptr noundef nonnull %31) #4
  br label %36

36:                                               ; preds = %33, %29
  %37 = getelementptr inbounds nuw i8, ptr %0, i64 88
  tail call void @llvm.memset.p0.i64(ptr noundef nonnull align 8 dereferenceable(16) %1, i8 0, i64 16, i1 false)
  %38 = load ptr, ptr %37, align 8, !tbaa !23
  %39 = add nuw nsw i32 %3, 1
  %40 = zext nneg i32 %39 to i64
  %41 = tail call ptr %38(i64 noundef %40) #4
  store ptr %41, ptr %30, align 8, !tbaa !24
  %42 = icmp eq ptr %41, null
  br i1 %42, label %exr_attr_string_init.exit.i, label %exr_attr_string_init.exit.thread.i

exr_attr_string_init.exit.thread.i:               ; preds = %36
  store i32 %3, ptr %1, align 8, !tbaa !26
  store i32 %39, ptr %17, align 4, !tbaa !27
  br label %47

exr_attr_string_init.exit.i:                      ; preds = %36
  %43 = getelementptr inbounds nuw i8, ptr %0, i64 56
  %44 = load ptr, ptr %43, align 8, !tbaa !25
  %45 = tail call i32 %44(ptr noundef nonnull %0, i32 noundef 1) #4
  %46 = icmp eq i32 %45, 0
  br i1 %46, label %exr_attr_string_init.exit._crit_edge.i, label %exr_attr_string_create_with_length.exit

exr_attr_string_init.exit._crit_edge.i:           ; preds = %exr_attr_string_init.exit.i
  %.pre.i = load ptr, ptr %30, align 8, !tbaa !24
  br label %47

47:                                               ; preds = %exr_attr_string_init.exit._crit_edge.i, %exr_attr_string_init.exit.thread.i
  %48 = phi ptr [ %.pre.i, %exr_attr_string_init.exit._crit_edge.i ], [ %41, %exr_attr_string_init.exit.thread.i ]
  %.not37 = icmp eq i32 %3, 0
  br i1 %.not37, label %._crit_edge, label %49

49:                                               ; preds = %47
  %.not24.i = icmp eq ptr %2, null
  %50 = zext nneg i32 %3 to i64
  br i1 %.not24.i, label %53, label %51

51:                                               ; preds = %49
  %52 = tail call ptr @strncpy(ptr noundef %48, ptr noundef nonnull readonly %2, i64 noundef %50) #4
  br label %._crit_edge

53:                                               ; preds = %49
  tail call void @llvm.memset.p0.i64(ptr align 1 %48, i8 0, i64 %50, i1 false)
  br label %._crit_edge

._crit_edge:                                      ; preds = %47, %53, %51
  %.pre-phi40 = phi i64 [ %50, %53 ], [ %50, %51 ], [ 0, %47 ]
  %54 = getelementptr inbounds nuw i8, ptr %48, i64 %.pre-phi40
  store i8 0, ptr %54, align 1, !tbaa !28
  br label %exr_attr_string_create_with_length.exit

exr_attr_string_create_with_length.exit:          ; preds = %._crit_edge, %exr_attr_string_init.exit.i, %4, %._crit_edge38, %12, %6
  %.0 = phi i32 [ %15, %12 ], [ 0, %._crit_edge38 ], [ %9, %6 ], [ 2, %4 ], [ 0, %._crit_edge ], [ %45, %exr_attr_string_init.exit.i ]
  ret i32 %.0
}